target datalayout = "e-m:e-p270:32:32-p271:32:32-p272:64:64-i64:64-i128:128-f80:128-n8:16:32:64-S128"
target triple = "x86_64-pc-linux-gnu"

%struct.pcre2_real_code_8 = type { %struct.pcre2_memctl, ptr, ptr, [32 x i8], i64, i32, i32, i32, i32, i32, i32, i32, i32, i32, i32, i16, i16, i16, i16, i16, i16, i16, i16 }
%struct.pcre2_memctl = type { ptr, ptr, ptr }
%struct.executable_functions = type { [3 x ptr], [3 x ptr], [3 x i64], i32, i32 }

@php_pcre2_jit_compile.executable_allocator_is_working = internal global i32 -1, align 4

; Function Attrs: nounwind uwtable
define i32 @php_pcre2_jit_compile(ptr noundef %0, i32 noundef %1) #0 {
  %3 = alloca i32, align 4
  %4 = alloca ptr, align 8
  %5 = alloca i32, align 4
  %6 = alloca ptr, align 8
  %7 = alloca ptr, align 8
  %8 = alloca ptr, align 8
  %9 = alloca i32, align 4
  %10 = alloca i32, align 4
  %11 = alloca i32, align 4
  %12 = alloca i32, align 4
  %13 = alloca i32, align 4
  %14 = alloca i32, align 4
  store ptr %0, ptr %4, align 8
  store i32 %1, ptr %5, align 4
  %15 = load ptr, ptr %4, align 8
  store ptr %15, ptr %6, align 8
  %16 = load ptr, ptr %4, align 8
  %17 = icmp eq ptr %16, null
  br i1 %17, label %18, label %19

18:                                               ; preds = %2
  store i32 -51, ptr %3, align 4
  br label %155

19:                                               ; preds = %2
  %20 = load i32, ptr %5, align 4
  %21 = and i32 %20, -264
  %22 = icmp ne i32 %21, 0
  br i1 %22, label %23, label %24

23:                                               ; preds = %19
  store i32 -45, ptr %3, align 4
  br label %155

24:                                               ; preds = %19
  %25 = load ptr, ptr %6, align 8
  %26 = getelementptr inbounds %struct.pcre2_real_code_8, ptr %25, i32 0, i32 2
  %27 = load ptr, ptr %26, align 8
  store ptr %27, ptr %7, align 8
  %28 = load i32, ptr %5, align 4
  %29 = and i32 %28, 256
  %30 = icmp ne i32 %29, 0
  br i1 %30, label %31, label %47

31:                                               ; preds = %24
  %32 = load ptr, ptr %6, align 8
  %33 = getelementptr inbounds %struct.pcre2_real_code_8, ptr %32, i32 0, i32 7
  %34 = load i32, ptr %33, align 8
  %35 = and i32 %34, 67108864
  %36 = icmp eq i32 %35, 0
  br i1 %36, label %37, label %46

37:                                               ; preds = %31
  %38 = load ptr, ptr %7, align 8
  %39 = icmp ne ptr %38, null
  br i1 %39, label %40, label %41

40:                                               ; preds = %37
  store i32 -45, ptr %3, align 4
  br label %155

41:                                               ; preds = %37
  %42 = load ptr, ptr %6, align 8
  %43 = getelementptr inbounds %struct.pcre2_real_code_8, ptr %42, i32 0, i32 7
  %44 = load i32, ptr %43, align 8
  %45 = or i32 %44, 67108864
  store i32 %45, ptr %43, align 8
  br label %46

46:                                               ; preds = %41, %31
  br label %47

47:                                               ; preds = %46, %24
  %48 = load ptr, ptr %6, align 8
  %49 = getelementptr inbounds %struct.pcre2_real_code_8, ptr %48, i32 0, i32 9
  %50 = load i32, ptr %49, align 8
  %51 = and i32 %50, 524288
  %52 = icmp ne i32 %51, 0
  br i1 %52, label %53, label %54

53:                                               ; preds = %47
  store i32 0, ptr %3, align 4
  br label %155

54:                                               ; preds = %47
  %55 = load i32, ptr @php_pcre2_jit_compile.executable_allocator_is_working, align 4
  %56 = icmp eq i32 %55, -1
  br i1 %56, label %57, label %66

57:                                               ; preds = %54
  %58 = call ptr @sljit_malloc_exec(i64 noundef 32)
  store ptr %58, ptr %8, align 8
  %59 = load ptr, ptr %8, align 8
  %60 = icmp ne ptr %59, null
  br i1 %60, label %61, label %64

61:                                               ; preds = %57
  %62 = load ptr, ptr %8, align 8
  %63 = getelementptr inbounds i8, ptr %62, i64 0
  call void @sljit_free_exec(ptr noundef %63)
  store i32 1, ptr @php_pcre2_jit_compile.executable_allocator_is_working, align 4
  br label %65

64:                                               ; preds = %57
  store i32 0, ptr @php_pcre2_jit_compile.executable_allocator_is_working, align 4
  br label %65

65:                                               ; preds = %64, %61
  br label %66

66:                                               ; preds = %65, %54
  %67 = load i32, ptr @php_pcre2_jit_compile.executable_allocator_is_working, align 4
  %68 = icmp ne i32 %67, 0
  br i1 %68, label %70, label %69

69:                                               ; preds = %66
  store i32 -48, ptr %3, align 4
  br label %155

70:                                               ; preds = %66
  %71 = load ptr, ptr %6, align 8
  %72 = getelementptr inbounds %struct.pcre2_real_code_8, ptr %71, i32 0, i32 7
  %73 = load i32, ptr %72, align 8
  %74 = and i32 %73, 67108864
  %75 = icmp ne i32 %74, 0
  br i1 %75, label %76, label %79

76:                                               ; preds = %70
  %77 = load i32, ptr %5, align 4
  %78 = or i32 %77, 256
  store i32 %78, ptr %5, align 4
  br label %79

79:                                               ; preds = %76, %70
  %80 = load i32, ptr %5, align 4
  %81 = and i32 %80, 1
  %82 = icmp ne i32 %81, 0
  br i1 %82, label %83, label %104

83:                                               ; preds = %79
  %84 = load ptr, ptr %7, align 8
  %85 = icmp eq ptr %84, null
  br i1 %85, label %92, label %86

86:                                               ; preds = %83
  %87 = load ptr, ptr %7, align 8
  %88 = getelementptr inbounds %struct.executable_functions, ptr %87, i32 0, i32 0
  %89 = getelementptr inbounds [3 x ptr], ptr %88, i64 0, i64 0
  %90 = load ptr, ptr %89, align 8
  %91 = icmp eq ptr %90, null
  br i1 %91, label %92, label %104

92:                                               ; preds = %86, %83
  store i32 6, ptr %9, align 4
  %93 = load ptr, ptr %4, align 8
  %94 = load i32, ptr %5, align 4
  %95 = load i32, ptr %9, align 4
  %96 = xor i32 %95, -1
  %97 = and i32 %94, %96
  %98 = call i32 @jit_compile(ptr noundef %93, i32 noundef %97)
  store i32 %98, ptr %10, align 4
  %99 = load i32, ptr %10, align 4
  %100 = icmp ne i32 %99, 0
  br i1 %100, label %101, label %103

101:                                              ; preds = %92
  %102 = load i32, ptr %10, align 4
  store i32 %102, ptr %3, align 4
  br label %155

103:                                              ; preds = %92
  br label %104

104:                                              ; preds = %103, %86, %79
  %105 = load i32, ptr %5, align 4
  %106 = and i32 %105, 2
  %107 = icmp ne i32 %106, 0
  br i1 %107, label %108, label %129

108:                                              ; preds = %104
  %109 = load ptr, ptr %7, align 8
  %110 = icmp eq ptr %109, null
  br i1 %110, label %117, label %111

111:                                              ; preds = %108
  %112 = load ptr, ptr %7, align 8
  %113 = getelementptr inbounds %struct.executable_functions, ptr %112, i32 0, i32 0
  %114 = getelementptr inbounds [3 x ptr], ptr %113, i64 0, i64 1
  %115 = load ptr, ptr %114, align 8
  %116 = icmp eq ptr %115, null
  br i1 %116, label %117, label %129

117:                                              ; preds = %111, %108
  store i32 5, ptr %11, align 4
  %118 = load ptr, ptr %4, align 8
  %119 = load i32, ptr %5, align 4
  %120 = load i32, ptr %11, align 4
  %121 = xor i32 %120, -1
  %122 = and i32 %119, %121
  %123 = call i32 @jit_compile(ptr noundef %118, i32 noundef %122)
  store i32 %123, ptr %12, align 4
  %124 = load i32, ptr %12, align 4
  %125 = icmp ne i32 %124, 0
  br i1 %125, label %126, label %128

126:                                              ; preds = %117
  %127 = load i32, ptr %12, align 4
  store i32 %127, ptr %3, align 4
  br label %155

128:                                              ; preds = %117
  br label %129

129:                                              ; preds = %128, %111, %104
  %130 = load i32, ptr %5, align 4
  %131 = and i32 %130, 4
  %132 = icmp ne i32 %131, 0
  br i1 %132, label %133, label %154

133:                                              ; preds = %129
  %134 = load ptr, ptr %7, align 8
  %135 = icmp eq ptr %134, null
  br i1 %135, label %142, label %136

136:                                              ; preds = %133
  %137 = load ptr, ptr %7, align 8
  %138 = getelementptr inbounds %struct.executable_functions, ptr %137, i32 0, i32 0
  %139 = getelementptr inbounds [3 x ptr], ptr %138, i64 0, i64 2
  %140 = load ptr, ptr %139, align 8
  %141 = icmp eq ptr %140, null
  br i1 %141, label %142, label %154

142:                                              ; preds = %136, %133
  store i32 3, ptr %13, align 4
  %143 = load ptr, ptr %4, align 8
  %144 = load i32, ptr %5, align 4
  %145 = load i32, ptr %13, align 4
  %146 = xor i32 %145, -1
  %147 = and i32 %144, %146
  %148 = call i32 @jit_compile(ptr noundef %143, i32 noundef %147)
  store i32 %148, ptr %14, align 4
  %149 = load i32, ptr %14, align 4
  %150 = icmp ne i32 %149, 0
  br i1 %150, label %151, label %153

151:                                              ; preds = %142
  %152 = load i32, ptr %14, align 4
  store i32 %152, ptr %3, align 4
  br label %155

153:                                              ; preds = %142
  br label %154

154:                                              ; preds = %153, %136, %129
  store i32 0, ptr %3, align 4
  br label %155

155:                                              ; preds = %154, %151, %126, %101, %69, %53, %40, %23, %18
  %156 = load i32, ptr %3, align 4
  ret i32 %156
}