; Function Attrs: nounwind uwtable
define noundef i32 @php_pcre2_jit_compile(ptr noundef %0, i32 noundef %1) local_unnamed_addr #0 {
  %3 = icmp eq ptr %0, null
  br i1 %3, label %62, label %4

4:                                                ; preds = %2
  %5 = and i32 %1, -264
  %.not = icmp eq i32 %5, 0
  br i1 %.not, label %6, label %62

6:                                                ; preds = %4
  %7 = getelementptr inbounds i8, ptr %0, i64 32
  %8 = load ptr, ptr %7, align 8
  %.not44 = icmp ult i32 %1, 256
  br i1 %.not44, label %17, label %9

9:                                                ; preds = %6
  %10 = getelementptr inbounds i8, ptr %0, i64 88
  %11 = load i32, ptr %10, align 8
  %12 = and i32 %11, 67108864
  %13 = icmp eq i32 %12, 0
  br i1 %13, label %14, label %17

14:                                               ; preds = %9
  %.not45 = icmp eq ptr %8, null
  br i1 %.not45, label %15, label %62

15:                                               ; preds = %14
  %16 = or disjoint i32 %11, 67108864
  store i32 %16, ptr %10, align 8
  br label %17

17:                                               ; preds = %9, %15, %6
  %18 = getelementptr inbounds i8, ptr %0, i64 96
  %19 = load i32, ptr %18, align 8
  %20 = and i32 %19, 524288
  %.not46 = icmp eq i32 %20, 0
  br i1 %.not46, label %21, label %62

21:                                               ; preds = %17
  %22 = load i32, ptr @php_pcre2_jit_compile.executable_allocator_is_working, align 4
  switch i32 %22, label %25 [
    i32 -1, label %23
    i32 0, label %62
  ]

23:                                               ; preds = %21
  %24 = tail call fastcc ptr @sljit_malloc_exec(i64 noundef 32)
  %.not47 = icmp eq ptr %24, null
  br i1 %.not47, label %.thread, label %.thread57

.thread57:                                        ; preds = %23
  tail call fastcc void @sljit_free_exec(ptr noundef nonnull %24)
  store i32 1, ptr @php_pcre2_jit_compile.executable_allocator_is_working, align 4
  br label %25

.thread:                                          ; preds = %23
  store i32 0, ptr @php_pcre2_jit_compile.executable_allocator_is_working, align 4
  br label %62

25:                                               ; preds = %21, %.thread57
  %26 = getelementptr inbounds i8, ptr %0, i64 88
  %27 = load i32, ptr %26, align 8
  %28 = lshr i32 %27, 18
  %29 = and i32 %28, 256
  %spec.select = or i32 %29, %1
  %30 = and i32 %1, 1
  %.not50 = icmp eq i32 %30, 0
  br i1 %.not50, label %39, label %31

31:                                               ; preds = %25
  %32 = icmp eq ptr %8, null
  br i1 %32, label %36, label %33

33:                                               ; preds = %31
  %34 = load ptr, ptr %8, align 8
  %35 = icmp eq ptr %34, null
  br i1 %35, label %36, label %39

36:                                               ; preds = %33, %31
  %37 = and i32 %spec.select, 257
  %38 = tail call fastcc i32 @jit_compile(ptr noundef nonnull %0, i32 noundef %37), !range !4
  %.not51 = icmp eq i32 %38, 0
  br i1 %.not51, label %39, label %62

39:                                               ; preds = %36, %33, %25
  %40 = and i32 %1, 2
  %.not52 = icmp eq i32 %40, 0
  br i1 %.not52, label %50, label %41

41:                                               ; preds = %39
  %42 = icmp eq ptr %8, null
  br i1 %42, label %47, label %43

43:                                               ; preds = %41
  %44 = getelementptr inbounds i8, ptr %8, i64 8
  %45 = load ptr, ptr %44, align 8
  %46 = icmp eq ptr %45, null
  br i1 %46, label %47, label %50

47:                                               ; preds = %43, %41
  %48 = and i32 %spec.select, 258
  %49 = tail call fastcc i32 @jit_compile(ptr noundef nonnull %0, i32 noundef %48), !range !4
  %.not53 = icmp eq i32 %49, 0
  br i1 %.not53, label %50, label %62

50:                                               ; preds = %47, %43, %39
  %51 = and i32 %1, 4
  %.not54 = icmp eq i32 %51, 0
  br i1 %.not54, label %61, label %52

52:                                               ; preds = %50
  %53 = icmp eq ptr %8, null
  br i1 %53, label %58, label %54

54:                                               ; preds = %52
  %55 = getelementptr inbounds i8, ptr %8, i64 16
  %56 = load ptr, ptr %55, align 8
  %57 = icmp eq ptr %56, null
  br i1 %57, label %58, label %61

58:                                               ; preds = %54, %52
  %59 = and i32 %spec.select, 260
  %60 = tail call fastcc i32 @jit_compile(ptr noundef nonnull %0, i32 noundef %59), !range !4
  %.not55 = icmp eq i32 %60, 0
  br i1 %.not55, label %61, label %62

61:                                               ; preds = %58, %54, %50
  br label %62

62:                                               ; preds = %21, %.thread, %58, %47, %36, %17, %14, %4, %2, %61
  %.0 = phi i32 [ 0, %61 ], [ -51, %2 ], [ -45, %4 ], [ -45, %14 ], [ 0, %17 ], [ %38, %36 ], [ %49, %47 ], [ %60, %58 ], [ -48, %.thread ], [ -48, %21 ]
  ret i32 %.0
}